; Function Attrs: nounwind uwtable
define internal noundef i32 @_warc_skip(ptr noundef %0) #0 {
  %2 = getelementptr inbounds nuw i8, ptr %0, i64 2072
  %3 = load ptr, ptr %2, align 8, !tbaa !8
  %4 = load ptr, ptr %3, align 8, !tbaa !26
  %5 = load i64, ptr %4, align 8, !tbaa !44
  %6 = add i64 %5, 4
  %7 = tail call i64 @__archive_read_consume(ptr noundef %0, i64 noundef %6) #16
  tail call void @llvm.memset.p0.i64(ptr noundef nonnull align 8 dereferenceable(16) %4, i8 0, i64 16, i1 false)
  ret i32 0
}